target datalayout = "e-m:e-p270:32:32-p271:32:32-p272:64:64-i64:64-i128:128-f80:128-n8:16:32:64-S128"
target triple = "x86_64-pc-linux-gnu"

%struct.SRP_gN_st = type { ptr, ptr, ptr }

; Function Attrs: inlinehint nounwind uwtable
define internal ptr @ossl_check_const_SRP_gN_sk_type(ptr noundef %0) #3 {
  %2 = alloca ptr, align 8
  store ptr %0, ptr %2, align 8, !tbaa !34
  %3 = load ptr, ptr %2, align 8, !tbaa !34
  ret ptr %3
}

; Function Attrs: nounwind uwtable
define internal ptr @SRP_get_gN_by_id(ptr noundef %0, ptr noundef %1) #0 {
  %3 = alloca ptr, align 8
  %4 = alloca ptr, align 8
  %5 = alloca ptr, align 8
  %6 = alloca i32, align 4
  %7 = alloca ptr, align 8
  %8 = alloca i32, align 4
  store ptr %0, ptr %4, align 8, !tbaa !18
  store ptr %1, ptr %5, align 8, !tbaa !34
  call void @llvm.lifetime.start.p0(i64 4, ptr %6) #7
  call void @llvm.lifetime.start.p0(i64 8, ptr %7) #7
  %9 = load ptr, ptr %5, align 8, !tbaa !34
  %10 = icmp ne ptr %9, null
  br i1 %10, label %11, label %42

11:                                               ; preds = %2
  store i32 0, ptr %6, align 4, !tbaa !32
  br label %12

12:                                               ; preds = %38, %11
  %13 = load i32, ptr %6, align 4, !tbaa !32
  %14 = load ptr, ptr %5, align 8, !tbaa !34
  %15 = call ptr @ossl_check_const_SRP_gN_sk_type(ptr noundef %14)
  %16 = call i32 @OPENSSL_sk_num(ptr noundef %15)
  %17 = icmp slt i32 %13, %16
  br i1 %17, label %18, label %41

18:                                               ; preds = %12
  %19 = load ptr, ptr %5, align 8, !tbaa !34
  %20 = call ptr @ossl_check_const_SRP_gN_sk_type(ptr noundef %19)
  %21 = load i32, ptr %6, align 4, !tbaa !32
  %22 = call ptr @OPENSSL_sk_value(ptr noundef %20, i32 noundef %21)
  store ptr %22, ptr %7, align 8, !tbaa !36
  %23 = load ptr, ptr %7, align 8, !tbaa !36
  %24 = icmp ne ptr %23, null
  br i1 %24, label %25, label %37

25:                                               ; preds = %18
  %26 = load ptr, ptr %4, align 8, !tbaa !18
  %27 = icmp eq ptr %26, null
  br i1 %27, label %35, label %28

28:                                               ; preds = %25
  %29 = load ptr, ptr %7, align 8, !tbaa !36
  %30 = getelementptr inbounds nuw %struct.SRP_gN_st, ptr %29, i32 0, i32 0
  %31 = load ptr, ptr %30, align 8, !tbaa !42
  %32 = load ptr, ptr %4, align 8, !tbaa !18
  %33 = call i32 @strcmp(ptr noundef %31, ptr noundef %32) #8
  %34 = icmp eq i32 %33, 0
  br i1 %34, label %35, label %37

35:                                               ; preds = %28, %25
  %36 = load ptr, ptr %7, align 8, !tbaa !36
  store ptr %36, ptr %3, align 8
  store i32 1, ptr %8, align 4
  br label %45

37:                                               ; preds = %28, %18
  br label %38

38:                                               ; preds = %37
  %39 = load i32, ptr %6, align 4, !tbaa !32
  %40 = add nsw i32 %39, 1
  store i32 %40, ptr %6, align 4, !tbaa !32
  br label %12, !llvm.loop !63

41:                                               ; preds = %12
  br label %42

42:                                               ; preds = %41, %2
  %43 = load ptr, ptr %4, align 8, !tbaa !18
  %44 = call ptr @SRP_get_default_gN(ptr noundef %43)
  store ptr %44, ptr %3, align 8
  store i32 1, ptr %8, align 4
  br label %45

45:                                               ; preds = %42, %35
  call void @llvm.lifetime.end.p0(i64 8, ptr %7) #7
  call void @llvm.lifetime.end.p0(i64 4, ptr %6) #7
  %46 = load ptr, ptr %3, align 8
  ret ptr %46
}