; Function Attrs: nounwind uwtable
define internal fastcc ptr @SRP_get_gN_by_id(ptr noundef %0, ptr noundef nonnull %1) unnamed_addr #0 {
  %3 = tail call i32 @OPENSSL_sk_num(ptr noundef nonnull %1) #7
  %4 = icmp sgt i32 %3, 0
  br i1 %4, label %.lr.ph, label %._crit_edge

.lr.ph:                                           ; preds = %2
  %5 = icmp eq ptr %0, null
  br i1 %5, label %.lr.ph.split.us, label %.lr.ph.split

.lr.ph.split.us:                                  ; preds = %.lr.ph, %7
  %.01216.us = phi i32 [ %8, %7 ], [ 0, %.lr.ph ]
  %6 = tail call ptr @OPENSSL_sk_value(ptr noundef nonnull %1, i32 noundef %.01216.us) #7
  %.not.us = icmp eq ptr %6, null
  br i1 %.not.us, label %7, label %.loopexit

7:                                                ; preds = %.lr.ph.split.us
  %8 = add nuw nsw i32 %.01216.us, 1
  %9 = tail call i32 @OPENSSL_sk_num(ptr noundef nonnull %1) #7
  %10 = icmp slt i32 %8, %9
  br i1 %10, label %.lr.ph.split.us, label %._crit_edge, !llvm.loop !36

.lr.ph.split:                                     ; preds = %.lr.ph, %16
  %.01216 = phi i32 [ %17, %16 ], [ 0, %.lr.ph ]
  %11 = tail call ptr @OPENSSL_sk_value(ptr noundef nonnull %1, i32 noundef %.01216) #7
  %.not = icmp eq ptr %11, null
  br i1 %.not, label %16, label %12

12:                                               ; preds = %.lr.ph.split
  %13 = load ptr, ptr %11, align 8, !tbaa !21
  %14 = tail call i32 @strcmp(ptr noundef nonnull dereferenceable(1) %13, ptr noundef nonnull dereferenceable(1) %0) #8
  %15 = icmp eq i32 %14, 0
  br i1 %15, label %.loopexit, label %16

16:                                               ; preds = %.lr.ph.split, %12
  %17 = add nuw nsw i32 %.01216, 1
  %18 = tail call i32 @OPENSSL_sk_num(ptr noundef nonnull %1) #7
  %19 = icmp slt i32 %17, %18
  br i1 %19, label %.lr.ph.split, label %._crit_edge, !llvm.loop !36

._crit_edge:                                      ; preds = %16, %7, %2
  %20 = tail call ptr @SRP_get_default_gN(ptr noundef %0) #7
  br label %.loopexit

.loopexit:                                        ; preds = %12, %.lr.ph.split.us, %._crit_edge
  %.0 = phi ptr [ %20, %._crit_edge ], [ %6, %.lr.ph.split.us ], [ %11, %12 ]
  ret ptr %.0
}